; Function Attrs: mustprogress nofree norecurse nosync nounwind willreturn memory(argmem: read) uwtable
define dso_local noundef i32 @_ZNK7doctest6String8capacityEv(ptr noundef nonnull readonly align 8 captures(none) dereferenceable(24) %0) local_unnamed_addr #17 align 2 {
  %2 = getelementptr inbounds nuw i8, ptr %0, i64 23
  %3 = load i8, ptr %2, align 1, !tbaa !38
  %4 = icmp sgt i8 %3, -1
  %5 = getelementptr inbounds nuw i8, ptr %0, i64 12
  %6 = load i32, ptr %5, align 4
  %.0 = select i1 %4, i32 24, i32 %6
  ret i32 %.0
}